target datalayout = "e-m:e-p270:32:32-p271:32:32-p272:64:64-i64:64-i128:128-f80:128-n8:16:32:64-S128"
target triple = "x86_64-pc-linux-gnu"

%struct.acn_pdu_offsets = type { i32, i32, i32, i32, i32 }

@hf_acn_pdu_length = internal global i32 0, align 4
@hf_rdmnet_pdu_length = internal global i32 0, align 4
@hf_rdmnet_broker_client_protocol_vector = internal global i32 0, align 4
@hf_rdmnet_broker_client_protocol_cid = internal global i32 0, align 4
@hf_rdmnet_broker_client_rpt_client_uid = internal global i32 0, align 4
@hf_rdmnet_broker_client_rpt_client_type = internal global i32 0, align 4
@hf_rdmnet_broker_client_rpt_binding_cid = internal global i32 0, align 4
@hf_rdmnet_broker_client_ept_protocol_vector = internal global i32 0, align 4
@hf_rdmnet_broker_client_ept_protocol_manufacturer_id = internal global i32 0, align 4
@hf_rdmnet_broker_client_ept_protocol_protocol_id = internal global i32 0, align 4
@hf_rdmnet_broker_client_ept_protocol_string = internal global i32 0, align 4
@ett_rdmnet_broker_client_entry_pdu = internal global i32 0, align 4
@ett_rdmnet_broker_client_entry_manufacturer_protocol_ids = internal global i32 0, align 4
@broker_client_protocol_vals = internal constant [3 x { i32, [4 x i8], ptr }] [{ i32, [4 x i8], ptr } { i32 5, [4 x i8] zeroinitializer, ptr @.str.699 }, { i32, [4 x i8], ptr } { i32 11, [4 x i8] zeroinitializer, ptr @.str.700 }, { i32, [4 x i8], ptr } zeroinitializer], align 16
@.str.753 = private unnamed_addr constant [5 x i8] c": %s\00", align 1
@.str.1912 = private unnamed_addr constant [13 x i8] c"unknown (%d)\00", align 1

; Function Attrs: nounwind null_pointer_is_valid sspstrong uwtable
define internal void @dissect_pdu_bit_flag_v(ptr noundef %0, i8 noundef zeroext %1, ptr noundef %2, ptr noundef %3, ptr noundef %4, i8 noundef zeroext %5) #4 {
  %7 = alloca ptr, align 8
  %8 = alloca i8, align 1
  %9 = alloca ptr, align 8
  %10 = alloca ptr, align 8
  %11 = alloca ptr, align 8
  %12 = alloca i8, align 1
  store ptr %0, ptr %7, align 8
  store i8 %1, ptr %8, align 1
  store ptr %2, ptr %9, align 8
  store ptr %3, ptr %10, align 8
  store ptr %4, ptr %11, align 8
  store i8 %5, ptr %12, align 1
  %13 = load i8, ptr %8, align 1
  %14 = zext i8 %13 to i32
  %15 = and i32 %14, 64
  %16 = icmp ne i32 %15, 0
  br i1 %16, label %17, label %35

17:                                               ; preds = %6
  %18 = load ptr, ptr %7, align 8
  %19 = load i32, ptr %18, align 4
  %20 = load ptr, ptr %9, align 8
  store i32 %19, ptr %20, align 4
  %21 = load ptr, ptr %7, align 8
  %22 = load i32, ptr %21, align 4
  %23 = load ptr, ptr %10, align 8
  %24 = getelementptr inbounds nuw %struct.acn_pdu_offsets, ptr %23, i32 0, i32 1
  store i32 %22, ptr %24, align 4
  %25 = load i8, ptr %12, align 1
  %26 = zext i8 %25 to i32
  %27 = load ptr, ptr %7, align 8
  %28 = load i32, ptr %27, align 4
  %29 = add i32 %28, %26
  store i32 %29, ptr %27, align 4
  %30 = load i8, ptr %12, align 1
  %31 = zext i8 %30 to i32
  %32 = load ptr, ptr %11, align 8
  %33 = load i32, ptr %32, align 4
  %34 = add i32 %33, %31
  store i32 %34, ptr %32, align 4
  br label %40

35:                                               ; preds = %6
  %36 = load ptr, ptr %10, align 8
  %37 = getelementptr inbounds nuw %struct.acn_pdu_offsets, ptr %36, i32 0, i32 1
  %38 = load i32, ptr %37, align 4
  %39 = load ptr, ptr %9, align 8
  store i32 %38, ptr %39, align 4
  br label %40

40:                                               ; preds = %35, %17
  ret void
}

; Function Attrs: nounwind null_pointer_is_valid sspstrong uwtable
define internal void @dissect_pdu_bit_flag_d(i32 noundef %0, i8 noundef zeroext %1, i32 noundef %2, ptr noundef %3, ptr noundef %4, ptr noundef %5, i32 noundef %6, i1 noundef zeroext %7) #4 {
  %9 = alloca i32, align 4
  %10 = alloca i8, align 1
  %11 = alloca i32, align 4
  %12 = alloca ptr, align 8
  %13 = alloca ptr, align 8
  %14 = alloca ptr, align 8
  %15 = alloca i32, align 4
  %16 = alloca i8, align 1
  store i32 %0, ptr %9, align 4
  store i8 %1, ptr %10, align 1
  store i32 %2, ptr %11, align 4
  store ptr %3, ptr %12, align 8
  store ptr %4, ptr %13, align 8
  store ptr %5, ptr %14, align 8
  store i32 %6, ptr %15, align 4
  %17 = zext i1 %7 to i8
  store i8 %17, ptr %16, align 1
  %18 = load i8, ptr %10, align 1
  %19 = zext i8 %18 to i32
  %20 = and i32 %19, 16
  %21 = icmp ne i32 %20, 0
  br i1 %21, label %22, label %36

22:                                               ; preds = %8
  %23 = load i32, ptr %9, align 4
  %24 = load ptr, ptr %12, align 8
  store i32 %23, ptr %24, align 4
  %25 = load i32, ptr %11, align 4
  %26 = load i32, ptr %15, align 4
  %27 = sub i32 %25, %26
  %28 = load ptr, ptr %13, align 8
  store i32 %27, ptr %28, align 4
  %29 = load i32, ptr %9, align 4
  %30 = load ptr, ptr %14, align 8
  %31 = getelementptr inbounds nuw %struct.acn_pdu_offsets, ptr %30, i32 0, i32 3
  store i32 %29, ptr %31, align 4
  %32 = load ptr, ptr %13, align 8
  %33 = load i32, ptr %32, align 4
  %34 = load ptr, ptr %14, align 8
  %35 = getelementptr inbounds nuw %struct.acn_pdu_offsets, ptr %34, i32 0, i32 4
  store i32 %33, ptr %35, align 4
  br label %49

36:                                               ; preds = %8
  %37 = load ptr, ptr %14, align 8
  %38 = getelementptr inbounds nuw %struct.acn_pdu_offsets, ptr %37, i32 0, i32 3
  %39 = load i32, ptr %38, align 4
  %40 = load ptr, ptr %12, align 8
  store i32 %39, ptr %40, align 4
  %41 = load i8, ptr %16, align 1, !range !9, !noundef !10
  %42 = trunc i8 %41 to i1
  br i1 %42, label %43, label %48

43:                                               ; preds = %36
  %44 = load ptr, ptr %14, align 8
  %45 = getelementptr inbounds nuw %struct.acn_pdu_offsets, ptr %44, i32 0, i32 4
  %46 = load i32, ptr %45, align 4
  %47 = load ptr, ptr %13, align 8
  store i32 %46, ptr %47, align 4
  br label %48

48:                                               ; preds = %43, %36
  br label %49

49:                                               ; preds = %48, %22
  ret void
}

; Function Attrs: null_pointer_is_valid sspstrong uwtable
define internal void @dissect_acn_common_base_pdu(ptr noundef %0, ptr noundef %1, ptr noundef %2, ptr noundef %3, ptr noundef %4, ptr noundef %5, ptr noundef %6, ptr noundef %7, ptr noundef %8, ptr noundef %9, ptr noundef %10, i32 noundef %11, i8 noundef zeroext %12, i1 noundef zeroext %13) #0 {
  %15 = alloca ptr, align 8
  %16 = alloca ptr, align 8
  %17 = alloca ptr, align 8
  %18 = alloca ptr, align 8
  %19 = alloca ptr, align 8
  %20 = alloca ptr, align 8
  %21 = alloca ptr, align 8
  %22 = alloca ptr, align 8
  %23 = alloca ptr, align 8
  %24 = alloca ptr, align 8
  %25 = alloca ptr, align 8
  %26 = alloca i32, align 4
  %27 = alloca i8, align 1
  %28 = alloca i8, align 1
  store ptr %0, ptr %15, align 8
  store ptr %1, ptr %16, align 8
  store ptr %2, ptr %17, align 8
  store ptr %3, ptr %18, align 8
  store ptr %4, ptr %19, align 8
  store ptr %5, ptr %20, align 8
  store ptr %6, ptr %21, align 8
  store ptr %7, ptr %22, align 8
  store ptr %8, ptr %23, align 8
  store ptr %9, ptr %24, align 8
  store ptr %10, ptr %25, align 8
  store i32 %11, ptr %26, align 4
  store i8 %12, ptr %27, align 1
  %29 = zext i1 %13 to i8
  store i8 %29, ptr %28, align 1
  %30 = load ptr, ptr %25, align 8
  %31 = load ptr, ptr %15, align 8
  %32 = load ptr, ptr %24, align 8
  %33 = load ptr, ptr %16, align 8
  %34 = load ptr, ptr %20, align 8
  %35 = load ptr, ptr %17, align 8
  %36 = load ptr, ptr %19, align 8
  %37 = load ptr, ptr %21, align 8
  %38 = load ptr, ptr %22, align 8
  %39 = load i32, ptr %26, align 4
  %40 = load i8, ptr %28, align 1, !range !9, !noundef !10
  %41 = trunc i8 %40 to i1
  call void @begin_dissect_acn_pdu(ptr noundef %30, ptr noundef %31, ptr noundef %32, ptr noundef %33, ptr noundef %34, ptr noundef %35, ptr noundef %36, ptr noundef %37, ptr noundef %38, i32 noundef %39, i1 noundef zeroext %41)
  %42 = load i8, ptr %28, align 1, !range !9, !noundef !10
  %43 = trunc i8 %42 to i1
  br i1 %43, label %44, label %56

44:                                               ; preds = %14
  %45 = load ptr, ptr %25, align 8
  %46 = load ptr, ptr %45, align 8
  %47 = load i32, ptr @hf_acn_pdu_length, align 4
  %48 = load ptr, ptr %15, align 8
  %49 = load ptr, ptr %20, align 8
  %50 = load i32, ptr %49, align 4
  %51 = load ptr, ptr %22, align 8
  %52 = load i32, ptr %51, align 4
  %53 = load ptr, ptr %21, align 8
  %54 = load i32, ptr %53, align 4
  %55 = call ptr @proto_tree_add_uint(ptr noundef %46, i32 noundef %47, ptr noundef %48, i32 noundef %50, i32 noundef %52, i32 noundef %54)
  br label %68

56:                                               ; preds = %14
  %57 = load ptr, ptr %25, align 8
  %58 = load ptr, ptr %57, align 8
  %59 = load i32, ptr @hf_rdmnet_pdu_length, align 4
  %60 = load ptr, ptr %15, align 8
  %61 = load ptr, ptr %20, align 8
  %62 = load i32, ptr %61, align 4
  %63 = load ptr, ptr %22, align 8
  %64 = load i32, ptr %63, align 4
  %65 = load ptr, ptr %21, align 8
  %66 = load i32, ptr %65, align 4
  %67 = call ptr @proto_tree_add_uint(ptr noundef %58, i32 noundef %59, ptr noundef %60, i32 noundef %62, i32 noundef %64, i32 noundef %66)
  br label %68

68:                                               ; preds = %56, %44
  %69 = load ptr, ptr %17, align 8
  %70 = load ptr, ptr %19, align 8
  %71 = load i8, ptr %70, align 1
  %72 = load ptr, ptr %23, align 8
  %73 = load ptr, ptr %18, align 8
  %74 = load ptr, ptr %22, align 8
  %75 = load i8, ptr %27, align 1
  call void @dissect_pdu_bit_flag_v(ptr noundef %69, i8 noundef zeroext %71, ptr noundef %72, ptr noundef %73, ptr noundef %74, i8 noundef zeroext %75)
  ret void
}

; Function Attrs: null_pointer_is_valid sspstrong uwtable
define internal i32 @dissect_broker_client_entry_pdu(ptr noundef %0, ptr noundef %1, i32 noundef %2, ptr noundef %3) #0 {
  %5 = alloca ptr, align 8
  %6 = alloca ptr, align 8
  %7 = alloca i32, align 4
  %8 = alloca ptr, align 8
  %9 = alloca i8, align 1
  %10 = alloca i32, align 4
  %11 = alloca i32, align 4
  %12 = alloca i32, align 4
  %13 = alloca i32, align 4
  %14 = alloca i32, align 4
  %15 = alloca i32, align 4
  %16 = alloca i32, align 4
  %17 = alloca ptr, align 8
  %18 = alloca ptr, align 8
  %19 = alloca ptr, align 8
  %20 = alloca ptr, align 8
  %21 = alloca ptr, align 8
  %22 = alloca i32, align 4
  store ptr %0, ptr %5, align 8
  store ptr %1, ptr %6, align 8
  store i32 %2, ptr %7, align 4
  store ptr %3, ptr %8, align 8
  call void @llvm.lifetime.start.p0(i64 1, ptr %9) #7
  call void @llvm.lifetime.start.p0(i64 4, ptr %10) #7
  call void @llvm.lifetime.start.p0(i64 4, ptr %11) #7
  call void @llvm.lifetime.start.p0(i64 4, ptr %12) #7
  call void @llvm.lifetime.start.p0(i64 4, ptr %13) #7
  call void @llvm.lifetime.start.p0(i64 4, ptr %14) #7
  call void @llvm.lifetime.start.p0(i64 4, ptr %15) #7
  call void @llvm.lifetime.start.p0(i64 4, ptr %16) #7
  call void @llvm.lifetime.start.p0(i64 8, ptr %17) #7
  call void @llvm.lifetime.start.p0(i64 8, ptr %18) #7
  call void @llvm.lifetime.start.p0(i64 8, ptr %19) #7
  call void @llvm.lifetime.start.p0(i64 8, ptr %20) #7
  call void @llvm.lifetime.start.p0(i64 8, ptr %21) #7
  call void @llvm.lifetime.start.p0(i64 4, ptr %22) #7
  %23 = load ptr, ptr %5, align 8
  %24 = load ptr, ptr %6, align 8
  %25 = load ptr, ptr %8, align 8
  %26 = load i32, ptr @ett_rdmnet_broker_client_entry_pdu, align 4
  call void @dissect_acn_common_base_pdu(ptr noundef %23, ptr noundef %24, ptr noundef %7, ptr noundef %25, ptr noundef %9, ptr noundef %10, ptr noundef %11, ptr noundef %13, ptr noundef %14, ptr noundef %17, ptr noundef %19, i32 noundef %26, i8 noundef zeroext 1, i1 noundef zeroext false)
  %27 = load i32, ptr %10, align 4
  %28 = load i32, ptr %11, align 4
  %29 = add i32 %27, %28
  store i32 %29, ptr %12, align 4
  %30 = load ptr, ptr %5, align 8
  %31 = load i32, ptr %14, align 4
  %32 = call i32 @tvb_get_ntohl(ptr noundef %30, i32 noundef %31)
  store i32 %32, ptr %22, align 4
  %33 = load ptr, ptr %19, align 8
  %34 = load i32, ptr @hf_rdmnet_broker_client_protocol_vector, align 4
  %35 = load ptr, ptr %5, align 8
  %36 = load i32, ptr %14, align 4
  %37 = call ptr @proto_tree_add_item(ptr noundef %33, i32 noundef %34, ptr noundef %35, i32 noundef %36, i32 noundef 4, i32 noundef 0)
  %38 = load i32, ptr %22, align 4
  %39 = call ptr @val_to_str(i32 noundef %38, ptr noundef @broker_client_protocol_vals, ptr noundef @.str.1912)
  store ptr %39, ptr %21, align 8
  %40 = load ptr, ptr %17, align 8
  %41 = load ptr, ptr %21, align 8
  call void (ptr, ptr, ...) @proto_item_append_text(ptr noundef %40, ptr noundef @.str.753, ptr noundef %41)
  %42 = load i32, ptr %7, align 4
  %43 = load i8, ptr %9, align 1
  %44 = load i32, ptr %11, align 4
  %45 = load ptr, ptr %8, align 8
  %46 = load i32, ptr %13, align 4
  call void @dissect_pdu_bit_flag_d(i32 noundef %42, i8 noundef zeroext %43, i32 noundef %44, ptr noundef %15, ptr noundef %16, ptr noundef %45, i32 noundef %46, i1 noundef zeroext false)
  %47 = load i32, ptr %15, align 4
  %48 = add i32 %47, 3
  store i32 %48, ptr %15, align 4
  %49 = load ptr, ptr %19, align 8
  %50 = load i32, ptr @hf_rdmnet_broker_client_protocol_cid, align 4
  %51 = load ptr, ptr %5, align 8
  %52 = load i32, ptr %15, align 4
  %53 = call ptr @proto_tree_add_item(ptr noundef %49, i32 noundef %50, ptr noundef %51, i32 noundef %52, i32 noundef 16, i32 noundef 0)
  %54 = load i32, ptr %15, align 4
  %55 = add i32 %54, 16
  store i32 %55, ptr %15, align 4
  %56 = load i32, ptr %22, align 4
  switch i32 %56, label %112 [
    i32 5, label %57
    i32 11, label %79
  ]

57:                                               ; preds = %4
  %58 = load ptr, ptr %19, align 8
  %59 = load i32, ptr @hf_rdmnet_broker_client_rpt_client_uid, align 4
  %60 = load ptr, ptr %5, align 8
  %61 = load i32, ptr %15, align 4
  %62 = call ptr @proto_tree_add_item(ptr noundef %58, i32 noundef %59, ptr noundef %60, i32 noundef %61, i32 noundef 6, i32 noundef 0)
  %63 = load i32, ptr %15, align 4
  %64 = add i32 %63, 6
  store i32 %64, ptr %15, align 4
  %65 = load ptr, ptr %19, align 8
  %66 = load i32, ptr @hf_rdmnet_broker_client_rpt_client_type, align 4
  %67 = load ptr, ptr %5, align 8
  %68 = load i32, ptr %15, align 4
  %69 = call ptr @proto_tree_add_item(ptr noundef %65, i32 noundef %66, ptr noundef %67, i32 noundef %68, i32 noundef 1, i32 noundef 0)
  %70 = load i32, ptr %15, align 4
  %71 = add i32 %70, 1
  store i32 %71, ptr %15, align 4
  %72 = load ptr, ptr %19, align 8
  %73 = load i32, ptr @hf_rdmnet_broker_client_rpt_binding_cid, align 4
  %74 = load ptr, ptr %5, align 8
  %75 = load i32, ptr %15, align 4
  %76 = call ptr @proto_tree_add_item(ptr noundef %72, i32 noundef %73, ptr noundef %74, i32 noundef %75, i32 noundef 16, i32 noundef 0)
  %77 = load i32, ptr %15, align 4
  %78 = add i32 %77, 16
  store i32 %78, ptr %15, align 4
  br label %112

79:                                               ; preds = %4
  br label %80

80:                                               ; preds = %85, %79
  %81 = load i32, ptr %7, align 4
  %82 = add i32 %81, 36
  %83 = load i32, ptr %12, align 4
  %84 = icmp ult i32 %82, %83
  br i1 %84, label %85, label %111

85:                                               ; preds = %80
  %86 = load ptr, ptr %19, align 8
  %87 = load i32, ptr @hf_rdmnet_broker_client_ept_protocol_vector, align 4
  %88 = load ptr, ptr %5, align 8
  %89 = load i32, ptr %15, align 4
  %90 = call ptr @proto_tree_add_item(ptr noundef %86, i32 noundef %87, ptr noundef %88, i32 noundef %89, i32 noundef 4, i32 noundef 0)
  store ptr %90, ptr %18, align 8
  %91 = load ptr, ptr %18, align 8
  %92 = load i32, ptr @ett_rdmnet_broker_client_entry_manufacturer_protocol_ids, align 4
  %93 = call ptr @proto_item_add_subtree(ptr noundef %91, i32 noundef %92)
  store ptr %93, ptr %20, align 8
  %94 = load ptr, ptr %20, align 8
  %95 = load i32, ptr @hf_rdmnet_broker_client_ept_protocol_manufacturer_id, align 4
  %96 = load ptr, ptr %5, align 8
  %97 = call ptr @proto_tree_add_item(ptr noundef %94, i32 noundef %95, ptr noundef %96, i32 noundef 0, i32 noundef 2, i32 noundef 0)
  %98 = load ptr, ptr %20, align 8
  %99 = load i32, ptr @hf_rdmnet_broker_client_ept_protocol_protocol_id, align 4
  %100 = load ptr, ptr %5, align 8
  %101 = call ptr @proto_tree_add_item(ptr noundef %98, i32 noundef %99, ptr noundef %100, i32 noundef 2, i32 noundef 2, i32 noundef 0)
  %102 = load i32, ptr %7, align 4
  %103 = add i32 %102, 4
  store i32 %103, ptr %7, align 4
  %104 = load ptr, ptr %19, align 8
  %105 = load i32, ptr @hf_rdmnet_broker_client_ept_protocol_string, align 4
  %106 = load ptr, ptr %5, align 8
  %107 = load i32, ptr %15, align 4
  %108 = call ptr @proto_tree_add_item(ptr noundef %104, i32 noundef %105, ptr noundef %106, i32 noundef %107, i32 noundef 32, i32 noundef 0)
  %109 = load i32, ptr %15, align 4
  %110 = add i32 %109, 32
  store i32 %110, ptr %15, align 4
  br label %80, !llvm.loop !62

111:                                              ; preds = %80
  br label %112

112:                                              ; preds = %4, %111, %57
  %113 = load i32, ptr %12, align 4
  call void @llvm.lifetime.end.p0(i64 4, ptr %22) #7
  call void @llvm.lifetime.end.p0(i64 8, ptr %21) #7
  call void @llvm.lifetime.end.p0(i64 8, ptr %20) #7
  call void @llvm.lifetime.end.p0(i64 8, ptr %19) #7
  call void @llvm.lifetime.end.p0(i64 8, ptr %18) #7
  call void @llvm.lifetime.end.p0(i64 8, ptr %17) #7
  call void @llvm.lifetime.end.p0(i64 4, ptr %16) #7
  call void @llvm.lifetime.end.p0(i64 4, ptr %15) #7
  call void @llvm.lifetime.end.p0(i64 4, ptr %14) #7
  call void @llvm.lifetime.end.p0(i64 4, ptr %13) #7
  call void @llvm.lifetime.end.p0(i64 4, ptr %12) #7
  call void @llvm.lifetime.end.p0(i64 4, ptr %11) #7
  call void @llvm.lifetime.end.p0(i64 4, ptr %10) #7
  call void @llvm.lifetime.end.p0(i64 1, ptr %9) #7
  ret i32 %113
}