; Function Attrs: null_pointer_is_valid sspstrong uwtable
define internal fastcc noundef i32 @dissect_broker_client_entry_pdu(ptr noundef %0, ptr noundef %1, i32 noundef %2, ptr noundef captures(none) %3) unnamed_addr #0 {
  %5 = alloca i32, align 4
  %6 = alloca i8, align 1
  %7 = alloca i32, align 4
  %8 = alloca i32, align 4
  %9 = alloca i32, align 4
  %10 = alloca ptr, align 8
  %11 = alloca ptr, align 8
  store i32 %2, ptr %5, align 4
  call void @llvm.lifetime.start.p0(i64 1, ptr nonnull %6) #7
  call void @llvm.lifetime.start.p0(i64 4, ptr nonnull %7) #7
  call void @llvm.lifetime.start.p0(i64 4, ptr nonnull %8) #7
  call void @llvm.lifetime.start.p0(i64 4, ptr nonnull %9) #7
  call void @llvm.lifetime.start.p0(i64 8, ptr nonnull %10) #7
  call void @llvm.lifetime.start.p0(i64 8, ptr nonnull %11) #7
  %12 = load i32, ptr @ett_rdmnet_broker_client_entry_pdu, align 4
  call fastcc void @begin_dissect_acn_pdu(ptr noundef nonnull %11, ptr noundef %0, ptr noundef nonnull %10, ptr noundef %1, ptr noundef nonnull %7, ptr noundef nonnull %5, ptr noundef nonnull %6, ptr noundef nonnull %8, ptr noundef nonnull %9, i32 noundef %12, i1 noundef zeroext false)
  %13 = load ptr, ptr %11, align 8
  %14 = load i32, ptr %7, align 4
  %15 = load i32, ptr %9, align 4
  %16 = load i32, ptr %8, align 4
  %hf_rdmnet_pdu_length.val.i = load i32, ptr @hf_rdmnet_pdu_length, align 4
  %17 = tail call ptr @proto_tree_add_uint(ptr noundef %13, i32 noundef %hf_rdmnet_pdu_length.val.i, ptr noundef %0, i32 noundef %14, i32 noundef %15, i32 noundef %16)
  %18 = load i8, ptr %6, align 1
  %19 = and i8 %18, 64
  %.not.i.i = icmp eq i8 %19, 0
  br i1 %.not.i.i, label %25, label %20

20:                                               ; preds = %4
  %21 = load i32, ptr %5, align 4
  %22 = getelementptr inbounds nuw i8, ptr %3, i64 4
  store i32 %21, ptr %22, align 4
  %23 = add i32 %21, 1
  store i32 %23, ptr %5, align 4
  %24 = add i32 %15, 1
  br label %dissect_acn_common_base_pdu.exit

25:                                               ; preds = %4
  %26 = getelementptr inbounds nuw i8, ptr %3, i64 4
  %27 = load i32, ptr %26, align 4
  br label %dissect_acn_common_base_pdu.exit

dissect_acn_common_base_pdu.exit:                 ; preds = %20, %25
  %28 = phi i32 [ %15, %25 ], [ %24, %20 ]
  %.0 = phi i32 [ %27, %25 ], [ %21, %20 ]
  %29 = add i32 %16, %14
  %30 = tail call i32 @tvb_get_ntohl(ptr noundef %0, i32 noundef %.0)
  %31 = load i32, ptr @hf_rdmnet_broker_client_protocol_vector, align 4
  %32 = tail call ptr @proto_tree_add_item(ptr noundef %13, i32 noundef %31, ptr noundef %0, i32 noundef %.0, i32 noundef 4, i32 noundef 0)
  %33 = tail call ptr @val_to_str(i32 noundef %30, ptr noundef nonnull @broker_client_protocol_vals, ptr noundef nonnull @.str.1912)
  %34 = load ptr, ptr %10, align 8
  tail call void (ptr, ptr, ...) @proto_item_append_text(ptr noundef %34, ptr noundef nonnull @.str.753, ptr noundef %33)
  %35 = and i8 %18, 16
  %.not.i = icmp eq i8 %35, 0
  br i1 %.not.i, label %41, label %36

36:                                               ; preds = %dissect_acn_common_base_pdu.exit
  %37 = load i32, ptr %5, align 4
  %38 = sub i32 %16, %28
  %39 = getelementptr inbounds nuw i8, ptr %3, i64 12
  store i32 %37, ptr %39, align 4
  %40 = getelementptr inbounds nuw i8, ptr %3, i64 16
  store i32 %38, ptr %40, align 4
  br label %dissect_pdu_bit_flag_d.exit

41:                                               ; preds = %dissect_acn_common_base_pdu.exit
  %42 = getelementptr inbounds nuw i8, ptr %3, i64 12
  %43 = load i32, ptr %42, align 4
  br label %dissect_pdu_bit_flag_d.exit

dissect_pdu_bit_flag_d.exit:                      ; preds = %36, %41
  %.1 = phi i32 [ %43, %41 ], [ %37, %36 ]
  %44 = add i32 %.1, 3
  %45 = load i32, ptr @hf_rdmnet_broker_client_protocol_cid, align 4
  %46 = tail call ptr @proto_tree_add_item(ptr noundef %13, i32 noundef %45, ptr noundef %0, i32 noundef %44, i32 noundef 16, i32 noundef 0)
  %47 = add i32 %.1, 19
  switch i32 %30, label %.loopexit [
    i32 5, label %50
    i32 11, label %.preheader
  ]

.preheader:                                       ; preds = %dissect_pdu_bit_flag_d.exit
  %.promoted = load i32, ptr %5, align 4
  %48 = add i32 %.promoted, 36
  %49 = icmp ult i32 %48, %29
  br i1 %49, label %.lr.ph, label %.loopexit

50:                                               ; preds = %dissect_pdu_bit_flag_d.exit
  %51 = load i32, ptr @hf_rdmnet_broker_client_rpt_client_uid, align 4
  %52 = tail call ptr @proto_tree_add_item(ptr noundef %13, i32 noundef %51, ptr noundef %0, i32 noundef %47, i32 noundef 6, i32 noundef 0)
  %53 = add i32 %.1, 25
  %54 = load i32, ptr @hf_rdmnet_broker_client_rpt_client_type, align 4
  %55 = tail call ptr @proto_tree_add_item(ptr noundef %13, i32 noundef %54, ptr noundef %0, i32 noundef %53, i32 noundef 1, i32 noundef 0)
  %56 = add i32 %.1, 26
  %57 = load i32, ptr @hf_rdmnet_broker_client_rpt_binding_cid, align 4
  %58 = tail call ptr @proto_tree_add_item(ptr noundef %13, i32 noundef %57, ptr noundef %0, i32 noundef %56, i32 noundef 16, i32 noundef 0)
  br label %.loopexit

.lr.ph:                                           ; preds = %.preheader, %.lr.ph
  %.03132 = phi i32 [ %71, %.lr.ph ], [ %47, %.preheader ]
  %59 = phi i32 [ %68, %.lr.ph ], [ %.promoted, %.preheader ]
  %60 = load i32, ptr @hf_rdmnet_broker_client_ept_protocol_vector, align 4
  %61 = tail call ptr @proto_tree_add_item(ptr noundef %13, i32 noundef %60, ptr noundef %0, i32 noundef %.03132, i32 noundef 4, i32 noundef 0)
  %62 = load i32, ptr @ett_rdmnet_broker_client_entry_manufacturer_protocol_ids, align 4
  %63 = tail call ptr @proto_item_add_subtree(ptr noundef %61, i32 noundef %62)
  %64 = load i32, ptr @hf_rdmnet_broker_client_ept_protocol_manufacturer_id, align 4
  %65 = tail call ptr @proto_tree_add_item(ptr noundef %63, i32 noundef %64, ptr noundef %0, i32 noundef 0, i32 noundef 2, i32 noundef 0)
  %66 = load i32, ptr @hf_rdmnet_broker_client_ept_protocol_protocol_id, align 4
  %67 = tail call ptr @proto_tree_add_item(ptr noundef %63, i32 noundef %66, ptr noundef %0, i32 noundef 2, i32 noundef 2, i32 noundef 0)
  %68 = add i32 %59, 4
  %69 = load i32, ptr @hf_rdmnet_broker_client_ept_protocol_string, align 4
  %70 = tail call ptr @proto_tree_add_item(ptr noundef %13, i32 noundef %69, ptr noundef %0, i32 noundef %.03132, i32 noundef 32, i32 noundef 0)
  %71 = add i32 %.03132, 32
  %72 = add i32 %59, 40
  %73 = icmp ult i32 %72, %29
  br i1 %73, label %.lr.ph, label %.loopexit, !llvm.loop !64

.loopexit:                                        ; preds = %.lr.ph, %.preheader, %50, %dissect_pdu_bit_flag_d.exit
  call void @llvm.lifetime.end.p0(i64 8, ptr nonnull %11) #7
  call void @llvm.lifetime.end.p0(i64 8, ptr nonnull %10) #7
  call void @llvm.lifetime.end.p0(i64 4, ptr nonnull %9) #7
  call void @llvm.lifetime.end.p0(i64 4, ptr nonnull %8) #7
  call void @llvm.lifetime.end.p0(i64 4, ptr nonnull %7) #7
  call void @llvm.lifetime.end.p0(i64 1, ptr nonnull %6) #7
  ret i32 %29
}